; Function Attrs: mustprogress nofree norecurse nosync nounwind willreturn memory(argmem: read) uwtable
define i32 @PQtransactionStatus(ptr noundef readonly captures(address_is_null) %0) local_unnamed_addr #14 {
  %.not = icmp eq ptr %0, null
  br i1 %.not, label %11, label %2

2:                                                ; preds = %1
  %3 = getelementptr inbounds nuw i8, ptr %0, i64 416
  %4 = load i32, ptr %3, align 8
  %.not5 = icmp eq i32 %4, 0
  br i1 %.not5, label %5, label %11

5:                                                ; preds = %2
  %6 = getelementptr inbounds nuw i8, ptr %0, i64 420
  %7 = load i32, ptr %6, align 4
  %.not6 = icmp eq i32 %7, 0
  br i1 %.not6, label %8, label %11

8:                                                ; preds = %5
  %9 = getelementptr inbounds nuw i8, ptr %0, i64 424
  %10 = load i32, ptr %9, align 8
  br label %11

11:                                               ; preds = %5, %1, %2, %8
  %.0 = phi i32 [ %10, %8 ], [ 4, %2 ], [ 4, %1 ], [ 1, %5 ]
  ret i32 %.0
}